(imatplotlib.font_manager
FontManager
p1
(dp2
S'afm_lookup_cache'
p3
(dp4
sS'ttflist'
p5
(lp6
ccopy_reg
_reconstructor
p7
(cmatplotlib.font_manager
FontEntry
p8
c__builtin__
object
p9
NtRp10
(dp11
S'style'
p12
S'normal'
p13
sS'name'
p14
S'STIXSizeTwoSym'
p15
sS'weight'
p16
I400
sS'stretch'
p17
g13
sS'variant'
p18
g13
sS'fname'
p19
S'/usr/lib64/python2.4/site-packages/matplotlib/mpl-data/fonts/ttf/STIXSizTwoSymReg.ttf'
p20
sS'size'
p21
S'scalable'
p22
sbag7
(g8
g9
NtRp23
(dp24
g12
g13
sg14
S'STIXNonUnicode'
p25
sg16
I400
sg17
g13
sg18
g13
sg19
S'/usr/lib64/python2.4/site-packages/matplotlib/mpl-data/fonts/ttf/STIXNonUni.ttf'
p26
sg21
g22
sbag7
(g8
g9
NtRp27
(dp28
g12
g13
sg14
S'Bitstream Vera Sans'
p29
sg16
I700
sg17
g13
sg18
g13
sg19
S'/usr/lib64/python2.4/site-packages/matplotlib/mpl-data/fonts/ttf/VeraBd.ttf'
p30
sg21
g22
sbag7
(g8
g9
NtRp31
(dp32
g12
S'italic'
p33
sg14
S'STIXNonUnicode'
p34
sg16
I400
sg17
g13
sg18
g13
sg19
S'/usr/lib64/python2.4/site-packages/matplotlib/mpl-data/fonts/ttf/STIXNonUniIta.ttf'
p35
sg21
g22
sbag7
(g8
g9
NtRp36
(dp37
g12
g13
sg14
S'Bitstream Vera Sans Mono'
p38
sg16
I400
sg17
g13
sg18
g13
sg19
S'/usr/lib64/python2.4/site-packages/matplotlib/mpl-data/fonts/ttf/VeraMono.ttf'
p39
sg21
g22
sbag7
(g8
g9
NtRp40
(dp41
g12
g13
sg14
S'STIXNonUnicode'
p42
sg16
I700
sg17
g13
sg18
g13
sg19
S'/usr/lib64/python2.4/site-packages/matplotlib/mpl-data/fonts/ttf/STIXNonUniBol.ttf'
p43
sg21
g22
sbag7
(g8
g9
NtRp44
(dp45
g12
g13
sg14
S'cmsy10'
p46
sg16
I400
sg17
g13
sg18
g13
sg19
S'/usr/lib64/python2.4/site-packages/matplotlib/mpl-data/fonts/ttf/cmsy10.ttf'
p47
sg21
g22
sbag7
(g8
g9
NtRp48
(dp49
g12
g13
sg14
S'STIXSizeOneSym'
p50
sg16
I400
sg17
g13
sg18
g13
sg19
S'/usr/lib64/python2.4/site-packages/matplotlib/mpl-data/fonts/ttf/STIXSizOneSymReg.ttf'
p51
sg21
g22
sbag7
(g8
g9
NtRp52
(dp53
g12
g13
sg14
S'STIXSizeFourSym'
p54
sg16
I400
sg17
g13
sg18
g13
sg19
S'/usr/lib64/python2.4/site-packages/matplotlib/mpl-data/fonts/ttf/STIXSizFourSymReg.ttf'
p55
sg21
g22
sbag7
(g8
g9
NtRp56
(dp57
g12
g13
sg14
S'cmr10'
p58
sg16
I400
sg17
g13
sg18
g13
sg19
S'/usr/lib64/python2.4/site-packages/matplotlib/mpl-data/fonts/ttf/cmr10.ttf'
p59
sg21
g22
sbag7
(g8
g9
NtRp60
(dp61
g12
g13
sg14
S'STIXSizeFiveSym'
p62
sg16
I400
sg17
g13
sg18
g13
sg19
S'/usr/lib64/python2.4/site-packages/matplotlib/mpl-data/fonts/ttf/STIXSizFiveSymReg.ttf'
p63
sg21
g22
sbag7
(g8
g9
NtRp64
(dp65
g12
g13
sg14
S'Bitstream Vera Serif'
p66
sg16
I700
sg17
g13
sg18
g13
sg19
S'/usr/lib64/python2.4/site-packages/matplotlib/mpl-data/fonts/ttf/VeraSeBd.ttf'
p67
sg21
g22
sbag7
(g8
g9
NtRp68
(dp69
g12
g33
sg14
S'STIXGeneral'
p70
sg16
I700
sg17
g13
sg18
g13
sg19
S'/usr/lib64/python2.4/site-packages/matplotlib/mpl-data/fonts/ttf/STIXGeneralBolIta.ttf'
p71
sg21
g22
sbag7
(g8
g9
NtRp72
(dp73
g12
g13
sg14
S'cmb10'
p74
sg16
I400
sg17
g13
sg18
g13
sg19
S'/usr/lib64/python2.4/site-packages/matplotlib/mpl-data/fonts/ttf/cmb10.ttf'
p75
sg21
g22
sbag7
(g8
g9
NtRp76
(dp77
g12
S'oblique'
p78
sg14
S'Bitstream Vera Sans Mono'
p79
sg16
I400
sg17
g13
sg18
g13
sg19
S'/usr/lib64/python2.4/site-packages/matplotlib/mpl-data/fonts/ttf/VeraMoIt.ttf'
p80
sg21
g22
sbag7
(g8
g9
NtRp81
(dp82
g12
g13
sg14
S'STIXSizeFourSym'
p83
sg16
I700
sg17
g13
sg18
g13
sg19
S'/usr/lib64/python2.4/site-packages/matplotlib/mpl-data/fonts/ttf/STIXSizFourSymBol.ttf'
p84
sg21
g22
sbag7
(g8
g9
NtRp85
(dp86
g12
g78
sg14
S'Bitstream Vera Sans Mono'
p87
sg16
I700
sg17
g13
sg18
g13
sg19
S'/usr/lib64/python2.4/site-packages/matplotlib/mpl-data/fonts/ttf/VeraMoBI.ttf'
p88
sg21
g22
sbag7
(g8
g9
NtRp89
(dp90
g12
g33
sg14
S'STIXNonUnicode'
p91
sg16
I700
sg17
g13
sg18
g13
sg19
S'/usr/lib64/python2.4/site-packages/matplotlib/mpl-data/fonts/ttf/STIXNonUniBolIta.ttf'
p92
sg21
g22
sbag7
(g8
g9
NtRp93
(dp94
g12
g13
sg14
S'STIXGeneral'
p95
sg16
I700
sg17
g13
sg18
g13
sg19
S'/usr/lib64/python2.4/site-packages/matplotlib/mpl-data/fonts/ttf/STIXGeneralBol.ttf'
p96
sg21
g22
sbag7
(g8
g9
NtRp97
(dp98
g12
g13
sg14
S'STIXGeneral'
p99
sg16
I400
sg17
g13
sg18
g13
sg19
S'/usr/lib64/python2.4/site-packages/matplotlib/mpl-data/fonts/ttf/STIXGeneral.ttf'
p100
sg21
g22
sbag7
(g8
g9
NtRp101
(dp102
g12
g13
sg14
S'cmex10'
p103
sg16
I400
sg17
g13
sg18
g13
sg19
S'/usr/lib64/python2.4/site-packages/matplotlib/mpl-data/fonts/ttf/cmex10.ttf'
p104
sg21
g22
sbag7
(g8
g9
NtRp105
(dp106
g12
g13
sg14
S'STIXSizeOneSym'
p107
sg16
I700
sg17
g13
sg18
g13
sg19
S'/usr/lib64/python2.4/site-packages/matplotlib/mpl-data/fonts/ttf/STIXSizOneSymBol.ttf'
p108
sg21
g22
sbag7
(g8
g9
NtRp109
(dp110
g12
g78
sg14
S'Bitstream Vera Sans'
p111
sg16
I400
sg17
g13
sg18
g13
sg19
S'/usr/lib64/python2.4/site-packages/matplotlib/mpl-data/fonts/ttf/VeraIt.ttf'
p112
sg21
g22
sbag7
(g8
g9
NtRp113
(dp114
g12
g78
sg14
S'Bitstream Vera Sans'
p115
sg16
I700
sg17
g13
sg18
g13
sg19
S'/usr/lib64/python2.4/site-packages/matplotlib/mpl-data/fonts/ttf/VeraBI.ttf'
p116
sg21
g22
sbag7
(g8
g9
NtRp117
(dp118
g12
g13
sg14
S'Bitstream Vera Serif'
p119
sg16
I400
sg17
g13
sg18
g13
sg19
S'/usr/lib64/python2.4/site-packages/matplotlib/mpl-data/fonts/ttf/VeraSe.ttf'
p120
sg21
g22
sbag7
(g8
g9
NtRp121
(dp122
g12
g33
sg14
S'STIXGeneral'
p123
sg16
I400
sg17
g13
sg18
g13
sg19
S'/usr/lib64/python2.4/site-packages/matplotlib/mpl-data/fonts/ttf/STIXGeneralItalic.ttf'
p124
sg21
g22
sbag7
(g8
g9
NtRp125
(dp126
g12
g13
sg14
S'Bitstream Vera Sans Mono'
p127
sg16
I700
sg17
g13
sg18
g13
sg19
S'/usr/lib64/python2.4/site-packages/matplotlib/mpl-data/fonts/ttf/VeraMoBd.ttf'
p128
sg21
g22
sbag7
(g8
g9
NtRp129
(dp130
g12
g13
sg14
S'cmmi10'
p131
sg16
I400
sg17
g13
sg18
g13
sg19
S'/usr/lib64/python2.4/site-packages/matplotlib/mpl-data/fonts/ttf/cmmi10.ttf'
p132
sg21
g22
sbag7
(g8
g9
NtRp133
(dp134
g12
g13
sg14
S'STIXSizeThreeSym'
p135
sg16
I700
sg17
g13
sg18
g13
sg19
S'/usr/lib64/python2.4/site-packages/matplotlib/mpl-data/fonts/ttf/STIXSizThreeSymBol.ttf'
p136
sg21
g22
sbag7
(g8
g9
NtRp137
(dp138
g12
g13
sg14
S'STIXSizeTwoSym'
p139
sg16
I700
sg17
g13
sg18
g13
sg19
S'/usr/lib64/python2.4/site-packages/matplotlib/mpl-data/fonts/ttf/STIXSizTwoSymBol.ttf'
p140
sg21
g22
sbag7
(g8
g9
NtRp141
(dp142
g12
g13
sg14
S'STIXSizeThreeSym'
p143
sg16
I400
sg17
g13
sg18
g13
sg19
S'/usr/lib64/python2.4/site-packages/matplotlib/mpl-data/fonts/ttf/STIXSizThreeSymReg.ttf'
p144
sg21
g22
sbag7
(g8
g9
NtRp145
(dp146
g12
g13
sg14
S'cmss10'
p147
sg16
I400
sg17
g13
sg18
g13
sg19
S'/usr/lib64/python2.4/site-packages/matplotlib/mpl-data/fonts/ttf/cmss10.ttf'
p148
sg21
g22
sbag7
(g8
g9
NtRp149
(dp150
g12
g13
sg14
S'Bitstream Vera Sans'
p151
sg16
I400
sg17
g13
sg18
g13
sg19
S'/usr/lib64/python2.4/site-packages/matplotlib/mpl-data/fonts/ttf/Vera.ttf'
p152
sg21
g22
sbag7
(g8
g9
NtRp153
(dp154
g12
g13
sg14
S'cmtt10'
p155
sg16
I400
sg17
g13
sg18
g13
sg19
S'/usr/lib64/python2.4/site-packages/matplotlib/mpl-data/fonts/ttf/cmtt10.ttf'
p156
sg21
g22
sbag7
(g8
g9
NtRp157
(dp158
g12
g13
sg14
S'DejaVu LGC Serif'
p159
sg16
I400
sg17
g13
sg18
g13
sg19
S'/usr/share/fonts/dejavu-lgc/DejaVuLGCSerif.ttf'
p160
sg21
g22
sbag7
(g8
g9
NtRp161
(dp162
g12
g13
sg14
S'DejaVu LGC Serif'
p163
sg16
I700
sg17
g13
sg18
g13
sg19
S'/usr/share/fonts/dejavu-lgc/DejaVuLGCSerif-Bold.ttf'
p164
sg21
g22
sbag7
(g8
g9
NtRp165
(dp166
g12
g13
sg14
S'Liberation Sans'
p167
sg16
I400
sg17
g13
sg18
g13
sg19
S'/usr/share/fonts/liberation/LiberationSans-Regular.ttf'
p168
sg21
g22
sbag7
(g8
g9
NtRp169
(dp170
g12
g78
sg14
S'DejaVu LGC Serif'
p171
sg16
I400
sg17
g13
sg18
g13
sg19
S'/usr/share/fonts/dejavu-lgc/DejaVuLGCSerif-Oblique.ttf'
p172
sg21
g22
sbag7
(g8
g9
NtRp173
(dp174
g12
g78
sg14
S'DejaVu LGC Sans Mono'
p175
sg16
I400
sg17
g13
sg18
g13
sg19
S'/usr/share/fonts/dejavu-lgc/DejaVuLGCSansMono-Oblique.ttf'
p176
sg21
g22
sbag7
(g8
g9
NtRp177
(dp178
g12
g78
sg14
S'DejaVu Serif'
p179
sg16
I700
sg17
S'condensed'
p180
sg18
g13
sg19
S'/usr/share/fonts/dejavu-lgc/DejaVuLGCSerifCondensed-BoldOblique.ttf'
p181
sg21
g22
sbag7
(g8
g9
NtRp182
(dp183
g12
g13
sg14
S'Liberation Sans'
p184
sg16
I700
sg17
g13
sg18
g13
sg19
S'/usr/share/fonts/liberation/LiberationSans-Bold.ttf'
p185
sg21
g22
sbag7
(g8
g9
NtRp186
(dp187
g12
g13
sg14
S'Liberation Serif'
p188
sg16
I700
sg17
g13
sg18
g13
sg19
S'/usr/share/fonts/liberation/LiberationSerif-Bold.ttf'
p189
sg21
g22
sbag7
(g8
g9
NtRp190
(dp191
g12
g78
sg14
S'DejaVu Sans'
p192
sg16
I700
sg17
g180
sg18
g13
sg19
S'/usr/share/fonts/dejavu-lgc/DejaVuLGCSansCondensed-BoldOblique.ttf'
p193
sg21
g22
sbag7
(g8
g9
NtRp194
(dp195
g12
g33
sg14
S'Liberation Serif'
p196
sg16
I400
sg17
g13
sg18
g13
sg19
S'/usr/share/fonts/liberation/LiberationSerif-Italic.ttf'
p197
sg21
g22
sbag7
(g8
g9
NtRp198
(dp199
g12
g13
sg14
S'DejaVu LGC Sans Mono'
p200
sg16
I700
sg17
g13
sg18
g13
sg19
S'/usr/share/fonts/dejavu-lgc/DejaVuLGCSansMono-Bold.ttf'
p201
sg21
g22
sbag7
(g8
g9
NtRp202
(dp203
g12
g78
sg14
S'DejaVu LGC Sans'
p204
sg16
I400
sg17
g13
sg18
g13
sg19
S'/usr/share/fonts/dejavu-lgc/DejaVuLGCSans-Oblique.ttf'
p205
sg21
g22
sbag7
(g8
g9
NtRp206
(dp207
g12
g33
sg14
S'Liberation Sans'
p208
sg16
I400
sg17
g13
sg18
g13
sg19
S'/usr/share/fonts/liberation/LiberationSans-Italic.ttf'
p209
sg21
g22
sbag7
(g8
g9
NtRp210
(dp211
g12
g13
sg14
S'DejaVu Sans'
p212
sg16
I200
sg17
g13
sg18
g13
sg19
S'/usr/share/fonts/dejavu-lgc/DejaVuLGCSans-ExtraLight.ttf'
p213
sg21
g22
sbag7
(g8
g9
NtRp214
(dp215
g12
g13
sg14
S'Liberation Mono'
p216
sg16
I400
sg17
g13
sg18
g13
sg19
S'/usr/share/fonts/liberation/LiberationMono-Regular.ttf'
p217
sg21
g22
sbag7
(g8
g9
NtRp218
(dp219
g12
g78
sg14
S'DejaVu LGC Sans'
p220
sg16
I700
sg17
g13
sg18
g13
sg19
S'/usr/share/fonts/dejavu-lgc/DejaVuLGCSans-BoldOblique.ttf'
p221
sg21
g22
sbag7
(g8
g9
NtRp222
(dp223
g12
g13
sg14
S'DejaVu LGC Sans Mono'
p224
sg16
I400
sg17
g13
sg18
g13
sg19
S'/usr/share/fonts/dejavu-lgc/DejaVuLGCSansMono.ttf'
p225
sg21
g22
sbag7
(g8
g9
NtRp226
(dp227
g12
g78
sg14
S'DejaVu LGC Sans Mono'
p228
sg16
I700
sg17
g13
sg18
g13
sg19
S'/usr/share/fonts/dejavu-lgc/DejaVuLGCSansMono-BoldOblique.ttf'
p229
sg21
g22
sbag7
(g8
g9
NtRp230
(dp231
g12
g13
sg14
S'DejaVu Serif'
p232
sg16
I700
sg17
g180
sg18
g13
sg19
S'/usr/share/fonts/dejavu-lgc/DejaVuLGCSerifCondensed-Bold.ttf'
p233
sg21
g22
sbag7
(g8
g9
NtRp234
(dp235
g12
g78
sg14
S'DejaVu Sans'
p236
sg16
I400
sg17
g180
sg18
g13
sg19
S'/usr/share/fonts/dejavu-lgc/DejaVuLGCSansCondensed-Oblique.ttf'
p237
sg21
g22
sbag7
(g8
g9
NtRp238
(dp239
g12
g33
sg14
S'Liberation Sans'
p240
sg16
I700
sg17
g13
sg18
g13
sg19
S'/usr/share/fonts/liberation/LiberationSans-BoldItalic.ttf'
p241
sg21
g22
sbag7
(g8
g9
NtRp242
(dp243
g12
g13
sg14
S'DejaVu Sans'
p244
sg16
I700
sg17
g180
sg18
g13
sg19
S'/usr/share/fonts/dejavu-lgc/DejaVuLGCSansCondensed-Bold.ttf'
p245
sg21
g22
sbag7
(g8
g9
NtRp246
(dp247
g12
g13
sg14
S'Liberation Serif'
p248
sg16
I400
sg17
g13
sg18
g13
sg19
S'/usr/share/fonts/liberation/LiberationSerif-Regular.ttf'
p249
sg21
g22
sbag7
(g8
g9
NtRp250
(dp251
g12
g33
sg14
S'Liberation Mono'
p252
sg16
I700
sg17
g13
sg18
g13
sg19
S'/usr/share/fonts/liberation/LiberationMono-BoldItalic.ttf'
p253
sg21
g22
sbag7
(g8
g9
NtRp254
(dp255
g12
g78
sg14
S'DejaVu Serif'
p256
sg16
I400
sg17
g180
sg18
g13
sg19
S'/usr/share/fonts/dejavu-lgc/DejaVuLGCSerifCondensed-Oblique.ttf'
p257
sg21
g22
sbag7
(g8
g9
NtRp258
(dp259
g12
g13
sg14
S'DejaVu Sans'
p260
sg16
I400
sg17
g180
sg18
g13
sg19
S'/usr/share/fonts/dejavu-lgc/DejaVuLGCSansCondensed.ttf'
p261
sg21
g22
sbag7
(g8
g9
NtRp262
(dp263
g12
g33
sg14
S'Liberation Mono'
p264
sg16
I400
sg17
g13
sg18
g13
sg19
S'/usr/share/fonts/liberation/LiberationMono-Italic.ttf'
p265
sg21
g22
sbag7
(g8
g9
NtRp266
(dp267
g12
g13
sg14
S'Liberation Mono'
p268
sg16
I700
sg17
g13
sg18
g13
sg19
S'/usr/share/fonts/liberation/LiberationMono-Bold.ttf'
p269
sg21
g22
sbag7
(g8
g9
NtRp270
(dp271
g12
g13
sg14
S'DejaVu LGC Sans'
p272
sg16
I400
sg17
g13
sg18
g13
sg19
S'/usr/share/fonts/dejavu-lgc/DejaVuLGCSans.ttf'
p273
sg21
g22
sbag7
(g8
g9
NtRp274
(dp275
g12
g13
sg14
S'DejaVu LGC Sans'
p276
sg16
I700
sg17
g13
sg18
g13
sg19
S'/usr/share/fonts/dejavu-lgc/DejaVuLGCSans-Bold.ttf'
p277
sg21
g22
sbag7
(g8
g9
NtRp278
(dp279
g12
g78
sg14
S'DejaVu LGC Serif'
p280
sg16
I700
sg17
g13
sg18
g13
sg19
S'/usr/share/fonts/dejavu-lgc/DejaVuLGCSerif-BoldOblique.ttf'
p281
sg21
g22
sbag7
(g8
g9
NtRp282
(dp283
g12
g13
sg14
S'DejaVu Serif'
p284
sg16
I400
sg17
g180
sg18
g13
sg19
S'/usr/share/fonts/dejavu-lgc/DejaVuLGCSerifCondensed.ttf'
p285
sg21
g22
sbag7
(g8
g9
NtRp286
(dp287
g12
g33
sg14
S'Liberation Serif'
p288
sg16
I700
sg17
g13
sg18
g13
sg19
S'/usr/share/fonts/liberation/LiberationSerif-BoldItalic.ttf'
p289
sg21
g22
sbasS'defaultFamily'
p290
(dp291
S'afm'
p292
S'Helvetica'
p293
sS'ttf'
p294
S'Bitstream Vera Sans'
p295
ssS'ttffiles'
p296
(lp297
S'/usr/lib64/python2.4/site-packages/matplotlib/mpl-data/fonts/ttf/STIXSizTwoSymReg.ttf'
p298
aS'/usr/lib64/python2.4/site-packages/matplotlib/mpl-data/fonts/ttf/STIXNonUni.ttf'
p299
aS'/usr/lib64/python2.4/site-packages/matplotlib/mpl-data/fonts/ttf/VeraBd.ttf'
p300
aS'/usr/lib64/python2.4/site-packages/matplotlib/mpl-data/fonts/ttf/STIXNonUniIta.ttf'
p301
aS'/usr/lib64/python2.4/site-packages/matplotlib/mpl-data/fonts/ttf/VeraMono.ttf'
p302
aS'/usr/lib64/python2.4/site-packages/matplotlib/mpl-data/fonts/ttf/STIXNonUniBol.ttf'
p303
aS'/usr/lib64/python2.4/site-packages/matplotlib/mpl-data/fonts/ttf/cmsy10.ttf'
p304
aS'/usr/lib64/python2.4/site-packages/matplotlib/mpl-data/fonts/ttf/STIXSizOneSymReg.ttf'
p305
aS'/usr/lib64/python2.4/site-packages/matplotlib/mpl-data/fonts/ttf/STIXSizFourSymReg.ttf'
p306
aS'/usr/lib64/python2.4/site-packages/matplotlib/mpl-data/fonts/ttf/cmr10.ttf'
p307
aS'/usr/lib64/python2.4/site-packages/matplotlib/mpl-data/fonts/ttf/STIXSizFiveSymReg.ttf'
p308
aS'/usr/lib64/python2.4/site-packages/matplotlib/mpl-data/fonts/ttf/VeraSeBd.ttf'
p309
aS'/usr/lib64/python2.4/site-packages/matplotlib/mpl-data/fonts/ttf/STIXGeneralBolIta.ttf'
p310
aS'/usr/lib64/python2.4/site-packages/matplotlib/mpl-data/fonts/ttf/cmb10.ttf'
p311
aS'/usr/lib64/python2.4/site-packages/matplotlib/mpl-data/fonts/ttf/VeraMoIt.ttf'
p312
aS'/usr/lib64/python2.4/site-packages/matplotlib/mpl-data/fonts/ttf/STIXSizFourSymBol.ttf'
p313
aS'/usr/lib64/python2.4/site-packages/matplotlib/mpl-data/fonts/ttf/VeraMoBI.ttf'
p314
aS'/usr/lib64/python2.4/site-packages/matplotlib/mpl-data/fonts/ttf/STIXNonUniBolIta.ttf'
p315
aS'/usr/lib64/python2.4/site-packages/matplotlib/mpl-data/fonts/ttf/STIXGeneralBol.ttf'
p316
aS'/usr/lib64/python2.4/site-packages/matplotlib/mpl-data/fonts/ttf/STIXGeneral.ttf'
p317
aS'/usr/lib64/python2.4/site-packages/matplotlib/mpl-data/fonts/ttf/cmex10.ttf'
p318
aS'/usr/lib64/python2.4/site-packages/matplotlib/mpl-data/fonts/ttf/STIXSizOneSymBol.ttf'
p319
aS'/usr/lib64/python2.4/site-packages/matplotlib/mpl-data/fonts/ttf/VeraIt.ttf'
p320
aS'/usr/lib64/python2.4/site-packages/matplotlib/mpl-data/fonts/ttf/VeraBI.ttf'
p321
aS'/usr/lib64/python2.4/site-packages/matplotlib/mpl-data/fonts/ttf/VeraSe.ttf'
p322
aS'/usr/lib64/python2.4/site-packages/matplotlib/mpl-data/fonts/ttf/STIXGeneralItalic.ttf'
p323
aS'/usr/lib64/python2.4/site-packages/matplotlib/mpl-data/fonts/ttf/VeraMoBd.ttf'
p324
aS'/usr/lib64/python2.4/site-packages/matplotlib/mpl-data/fonts/ttf/cmmi10.ttf'
p325
aS'/usr/lib64/python2.4/site-packages/matplotlib/mpl-data/fonts/ttf/STIXSizThreeSymBol.ttf'
p326
aS'/usr/lib64/python2.4/site-packages/matplotlib/mpl-data/fonts/ttf/STIXSizTwoSymBol.ttf'
p327
aS'/usr/lib64/python2.4/site-packages/matplotlib/mpl-data/fonts/ttf/STIXSizThreeSymReg.ttf'
p328
aS'/usr/lib64/python2.4/site-packages/matplotlib/mpl-data/fonts/ttf/cmss10.ttf'
p329
aS'/usr/lib64/python2.4/site-packages/matplotlib/mpl-data/fonts/ttf/Vera.ttf'
p330
aS'/usr/lib64/python2.4/site-packages/matplotlib/mpl-data/fonts/ttf/cmtt10.ttf'
p331
aS'/usr/share/fonts/dejavu-lgc/DejaVuLGCSerif.ttf'
p332
aS'/usr/share/fonts/bitstream-vera/VeraMono.ttf'
p333
aS'/usr/share/fonts/dejavu-lgc/DejaVuLGCSerif-Bold.ttf'
p334
aS'/usr/share/fonts/liberation/LiberationSans-Regular.ttf'
p335
aS'/usr/share/fonts/bitstream-vera/VeraMoIt.ttf'
p336
aS'/usr/share/fonts/dejavu-lgc/DejaVuLGCSerif-Oblique.ttf'
p337
aS'/usr/share/fonts/dejavu-lgc/DejaVuLGCSansMono-Oblique.ttf'
p338
aS'/usr/share/fonts/dejavu-lgc/DejaVuLGCSerifCondensed-BoldOblique.ttf'
p339
aS'/usr/share/fonts/liberation/LiberationSans-Bold.ttf'
p340
aS'/usr/share/fonts/liberation/LiberationSerif-Bold.ttf'
p341
aS'/usr/share/fonts/dejavu-lgc/DejaVuLGCSansCondensed-BoldOblique.ttf'
p342
aS'/usr/share/fonts/liberation/LiberationSerif-Italic.ttf'
p343
aS'/usr/share/fonts/dejavu-lgc/DejaVuLGCSansMono-Bold.ttf'
p344
aS'/usr/share/fonts/dejavu-lgc/DejaVuLGCSans-Oblique.ttf'
p345
aS'/usr/share/fonts/bitstream-vera/VeraMoBd.ttf'
p346
aS'/usr/share/fonts/liberation/LiberationSans-Italic.ttf'
p347
aS'/usr/share/fonts/bitstream-vera/Vera.ttf'
p348
aS'/usr/share/fonts/dejavu-lgc/DejaVuLGCSans-ExtraLight.ttf'
p349
aS'/usr/share/fonts/bitstream-vera/VeraBI.ttf'
p350
aS'/usr/share/fonts/liberation/LiberationMono-Regular.ttf'
p351
aS'/usr/share/fonts/dejavu-lgc/DejaVuLGCSans-BoldOblique.ttf'
p352
aS'/usr/share/fonts/dejavu-lgc/DejaVuLGCSansMono.ttf'
p353
aS'/usr/share/fonts/bitstream-vera/VeraIt.ttf'
p354
aS'/usr/share/fonts/dejavu-lgc/DejaVuLGCSansMono-BoldOblique.ttf'
p355
aS'/usr/share/fonts/dejavu-lgc/DejaVuLGCSerifCondensed-Bold.ttf'
p356
aS'/usr/share/fonts/dejavu-lgc/DejaVuLGCSansCondensed-Oblique.ttf'
p357
aS'/usr/share/fonts/bitstream-vera/VeraSe.ttf'
p358
aS'/usr/share/fonts/liberation/LiberationSans-BoldItalic.ttf'
p359
aS'/usr/share/fonts/bitstream-vera/VeraMoBI.ttf'
p360
aS'/usr/share/fonts/dejavu-lgc/DejaVuLGCSansCondensed-Bold.ttf'
p361
aS'/usr/share/fonts/liberation/LiberationSerif-Regular.ttf'
p362
aS'/usr/share/fonts/bitstream-vera/VeraSeBd.ttf'
p363
aS'/usr/share/fonts/liberation/LiberationMono-BoldItalic.ttf'
p364
aS'/usr/share/fonts/bitstream-vera/VeraBd.ttf'
p365
aS'/usr/share/fonts/dejavu-lgc/DejaVuLGCSerifCondensed-Oblique.ttf'
p366
aS'/usr/share/fonts/dejavu-lgc/DejaVuLGCSansCondensed.ttf'
p367
aS'/usr/share/fonts/liberation/LiberationMono-Italic.ttf'
p368
aS'/usr/share/fonts/liberation/LiberationMono-Bold.ttf'
p369
aS'/usr/share/fonts/dejavu-lgc/DejaVuLGCSans.ttf'
p370
aS'/usr/share/fonts/dejavu-lgc/DejaVuLGCSans-Bold.ttf'
p371
aS'/usr/share/fonts/dejavu-lgc/DejaVuLGCSerif-BoldOblique.ttf'
p372
aS'/usr/share/fonts/dejavu-lgc/DejaVuLGCSerifCondensed.ttf'
p373
aS'/usr/share/fonts/liberation/LiberationSerif-BoldItalic.ttf'
p374
asS'_FontManager__default_weight'
p375
g13
sS'_version'
p376
I7
sS'ttf_lookup_cache'
p377
(dp378
sS'default_size'
p379
NsS'defaultFont'
p380
(dp381
g292
Nsg294
g330
ssS'afmfiles'
p382
(lp383
S'/usr/lib64/python2.4/site-packages/matplotlib/mpl-data/fonts/afm/pcrr8a.afm'
p384
aS'/usr/lib64/python2.4/site-packages/matplotlib/mpl-data/fonts/afm/phvbo8a.afm'
p385
aS'/usr/lib64/python2.4/site-packages/matplotlib/mpl-data/fonts/afm/ptmbi8a.afm'
p386
aS'/usr/lib64/python2.4/site-packages/matplotlib/mpl-data/fonts/afm/cmsy10.afm'
p387
aS'/usr/lib64/python2.4/site-packages/matplotlib/mpl-data/fonts/pdfcorefonts/Helvetica-Bold.afm'
p388
aS'/usr/lib64/python2.4/site-packages/matplotlib/mpl-data/fonts/afm/psyr.afm'
p389
aS'/usr/lib64/python2.4/site-packages/matplotlib/mpl-data/fonts/afm/phvro8an.afm'
p390
aS'/usr/lib64/python2.4/site-packages/matplotlib/mpl-data/fonts/afm/cmex10.afm'
p391
aS'/usr/lib64/python2.4/site-packages/matplotlib/mpl-data/fonts/afm/pcrb8a.afm'
p392
aS'/usr/lib64/python2.4/site-packages/matplotlib/mpl-data/fonts/afm/pagdo8a.afm'
p393
aS'/usr/lib64/python2.4/site-packages/matplotlib/mpl-data/fonts/afm/putbi8a.afm'
p394
aS'/usr/lib64/python2.4/site-packages/matplotlib/mpl-data/fonts/pdfcorefonts/Courier-Bold.afm'
p395
aS'/usr/lib64/python2.4/site-packages/matplotlib/mpl-data/fonts/afm/cmr10.afm'
p396
aS'/usr/lib64/python2.4/site-packages/matplotlib/mpl-data/fonts/afm/pbkli8a.afm'
p397
aS'/usr/lib64/python2.4/site-packages/matplotlib/mpl-data/fonts/pdfcorefonts/Courier-BoldOblique.afm'
p398
aS'/usr/lib64/python2.4/site-packages/matplotlib/mpl-data/fonts/afm/pzdr.afm'
p399
aS'/usr/lib64/python2.4/site-packages/matplotlib/mpl-data/fonts/pdfcorefonts/Times-Roman.afm'
p400
aS'/usr/lib64/python2.4/site-packages/matplotlib/mpl-data/fonts/afm/putr8a.afm'
p401
aS'/usr/lib64/python2.4/site-packages/matplotlib/mpl-data/fonts/afm/putri8a.afm'
p402
aS'/usr/lib64/python2.4/site-packages/matplotlib/mpl-data/fonts/afm/phvlo8a.afm'
p403
aS'/usr/lib64/python2.4/site-packages/matplotlib/mpl-data/fonts/afm/pcrbo8a.afm'
p404
aS'/usr/lib64/python2.4/site-packages/matplotlib/mpl-data/fonts/pdfcorefonts/Courier.afm'
p405
aS'/usr/lib64/python2.4/site-packages/matplotlib/mpl-data/fonts/afm/phvro8a.afm'
p406
aS'/usr/lib64/python2.4/site-packages/matplotlib/mpl-data/fonts/afm/phvr8an.afm'
p407
aS'/usr/lib64/python2.4/site-packages/matplotlib/mpl-data/fonts/afm/pagko8a.afm'
p408
aS'/usr/lib64/python2.4/site-packages/matplotlib/mpl-data/fonts/pdfcorefonts/Times-Bold.afm'
p409
aS'/usr/lib64/python2.4/site-packages/matplotlib/mpl-data/fonts/afm/pplr8a.afm'
p410
aS'/usr/lib64/python2.4/site-packages/matplotlib/mpl-data/fonts/afm/ptmb8a.afm'
p411
aS'/usr/lib64/python2.4/site-packages/matplotlib/mpl-data/fonts/afm/phvb8an.afm'
p412
aS'/usr/lib64/python2.4/site-packages/matplotlib/mpl-data/fonts/afm/phvr8a.afm'
p413
aS'/usr/lib64/python2.4/site-packages/matplotlib/mpl-data/fonts/afm/pbkd8a.afm'
p414
aS'/usr/lib64/python2.4/site-packages/matplotlib/mpl-data/fonts/afm/pbkdi8a.afm'
p415
aS'/usr/lib64/python2.4/site-packages/matplotlib/mpl-data/fonts/pdfcorefonts/ZapfDingbats.afm'
p416
aS'/usr/lib64/python2.4/site-packages/matplotlib/mpl-data/fonts/pdfcorefonts/Symbol.afm'
p417
aS'/usr/lib64/python2.4/site-packages/matplotlib/mpl-data/fonts/afm/pplbi8a.afm'
p418
aS'/usr/lib64/python2.4/site-packages/matplotlib/mpl-data/fonts/afm/putb8a.afm'
p419
aS'/usr/lib64/python2.4/site-packages/matplotlib/mpl-data/fonts/afm/pncbi8a.afm'
p420
aS'/usr/lib64/python2.4/site-packages/matplotlib/mpl-data/fonts/pdfcorefonts/Helvetica-BoldOblique.afm'
p421
aS'/usr/lib64/python2.4/site-packages/matplotlib/mpl-data/fonts/afm/ptmr8a.afm'
p422
aS'/usr/lib64/python2.4/site-packages/matplotlib/mpl-data/fonts/afm/pbkl8a.afm'
p423
aS'/usr/lib64/python2.4/site-packages/matplotlib/mpl-data/fonts/afm/pncr8a.afm'
p424
aS'/usr/lib64/python2.4/site-packages/matplotlib/mpl-data/fonts/pdfcorefonts/Helvetica.afm'
p425
aS'/usr/lib64/python2.4/site-packages/matplotlib/mpl-data/fonts/pdfcorefonts/Times-Italic.afm'
p426
aS'/usr/lib64/python2.4/site-packages/matplotlib/mpl-data/fonts/afm/phvl8a.afm'
p427
aS'/usr/lib64/python2.4/site-packages/matplotlib/mpl-data/fonts/afm/pncri8a.afm'
p428
aS'/usr/lib64/python2.4/site-packages/matplotlib/mpl-data/fonts/afm/phvbo8an.afm'
p429
aS'/usr/lib64/python2.4/site-packages/matplotlib/mpl-data/fonts/pdfcorefonts/Courier-Oblique.afm'
p430
aS'/usr/lib64/python2.4/site-packages/matplotlib/mpl-data/fonts/afm/pncb8a.afm'
p431
aS'/usr/lib64/python2.4/site-packages/matplotlib/mpl-data/fonts/afm/pplri8a.afm'
p432
aS'/usr/lib64/python2.4/site-packages/matplotlib/mpl-data/fonts/afm/pzcmi8a.afm'
p433
aS'/usr/lib64/python2.4/site-packages/matplotlib/mpl-data/fonts/afm/phvb8a.afm'
p434
aS'/usr/lib64/python2.4/site-packages/matplotlib/mpl-data/fonts/afm/ptmri8a.afm'
p435
aS'/usr/lib64/python2.4/site-packages/matplotlib/mpl-data/fonts/afm/pplb8a.afm'
p436
aS'/usr/lib64/python2.4/site-packages/matplotlib/mpl-data/fonts/afm/pagk8a.afm'
p437
aS'/usr/lib64/python2.4/site-packages/matplotlib/mpl-data/fonts/pdfcorefonts/Helvetica-Oblique.afm'
p438
aS'/usr/lib64/python2.4/site-packages/matplotlib/mpl-data/fonts/afm/cmmi10.afm'
p439
aS'/usr/lib64/python2.4/site-packages/matplotlib/mpl-data/fonts/afm/pcrro8a.afm'
p440
aS'/usr/lib64/python2.4/site-packages/matplotlib/mpl-data/fonts/afm/cmtt10.afm'
p441
aS'/usr/lib64/python2.4/site-packages/matplotlib/mpl-data/fonts/pdfcorefonts/Times-BoldItalic.afm'
p442
aS'/usr/lib64/python2.4/site-packages/matplotlib/mpl-data/fonts/afm/pagd8a.afm'
p443
aS'/usr/share/fonts/default/ghostscript/fcyri.afm'
p444
aS'/usr/share/fonts/default/Type1/n021023l.afm'
p445
aS'/usr/share/fonts/default/ghostscript/u003043t.afm'
p446
aS'/usr/share/fonts/default/Type1/b018032l.afm'
p447
aS'/usr/share/fonts/default/Type1/p052024l.afm'
p448
aS'/usr/share/fonts/default/Type1/n019003l.afm'
p449
aS'/usr/share/fonts/default/Type1/n021003l.afm'
p450
aS'/usr/share/fonts/default/Type1/b018035l.afm'
p451
aS'/usr/share/fonts/default/Type1/p052003l.afm'
p452
aS'/usr/share/fonts/default/Type1/n022023l.afm'
p453
aS'/usr/share/fonts/default/Type1/n021024l.afm'
p454
aS'/usr/share/fonts/default/Type1/a010033l.afm'
p455
aS'/usr/share/fonts/default/Type1/p052004l.afm'
p456
aS'/usr/share/fonts/default/Type1/n019023l.afm'
p457
aS'/usr/share/fonts/default/Type1/n022004l.afm'
p458
aS'/usr/share/fonts/default/Type1/n019063l.afm'
p459
aS'/usr/share/fonts/default/Type1/n019043l.afm'
p460
aS'/usr/share/fonts/default/ghostscript/bchri.afm'
p461
aS'/usr/share/fonts/default/Type1/n019064l.afm'
p462
aS'/usr/share/fonts/default/Type1/n019044l.afm'
p463
aS'/usr/share/fonts/default/Type1/n021004l.afm'
p464
aS'/usr/share/fonts/default/ghostscript/bchbi.afm'
p465
aS'/usr/share/fonts/default/Type1/n019024l.afm'
p466
aS'/usr/share/fonts/default/Type1/a010035l.afm'
p467
aS'/usr/share/fonts/default/ghostscript/fcyr.afm'
p468
aS'/usr/share/fonts/default/Type1/s050000l.afm'
p469
aS'/usr/share/fonts/default/ghostscript/bchb.afm'
p470
aS'/usr/share/fonts/default/Type1/a010013l.afm'
p471
aS'/usr/share/fonts/default/Type1/z003034l.afm'
p472
aS'/usr/share/fonts/default/Type1/c059036l.afm'
p473
aS'/usr/share/fonts/default/Type1/n019004l.afm'
p474
aS'/usr/share/fonts/default/ghostscript/bchr.afm'
p475
aS'/usr/share/fonts/default/Type1/b018012l.afm'
p476
aS'/usr/share/fonts/default/Type1/d050000l.afm'
p477
aS'/usr/share/fonts/default/Type1/c059013l.afm'
p478
aS'/usr/share/fonts/default/Type1/n022024l.afm'
p479
aS'/usr/share/fonts/default/Type1/a010015l.afm'
p480
aS'/usr/share/fonts/default/Type1/c059033l.afm'
p481
aS'/usr/share/fonts/default/Type1/n022003l.afm'
p482
aS'/usr/share/fonts/default/ghostscript/u004006t.afm'
p483
aS'/usr/share/fonts/default/Type1/p052023l.afm'
p484
aS'/usr/share/fonts/default/Type1/b018015l.afm'
p485
aS'/usr/share/fonts/default/Type1/c059016l.afm'
p486
asS'afmlist'
p487
(lp488
g7
(g8
g9
NtRp489
(dp490
g12
g13
sg14
S'Courier'
p491
sg16
I500
sg17
g13
sg18
g13
sg19
g384
sg21
g22
sbag7
(g8
g9
NtRp492
(dp493
g12
g33
sg14
S'Helvetica'
p494
sg16
I700
sg17
g13
sg18
g13
sg19
g385
sg21
g22
sbag7
(g8
g9
NtRp495
(dp496
g12
g33
sg14
S'Times'
p497
sg16
I700
sg17
g13
sg18
g13
sg19
g386
sg21
g22
sbag7
(g8
g9
NtRp498
(dp499
g12
g33
sg14
S'Computer Modern'
p500
sg16
I500
sg17
g13
sg18
g13
sg19
g387
sg21
g22
sbag7
(g8
g9
NtRp501
(dp502
g12
g13
sg14
S'Helvetica'
p503
sg16
I700
sg17
g13
sg18
g13
sg19
g388
sg21
g22
sbag7
(g8
g9
NtRp504
(dp505
g12
g13
sg14
S'Symbol'
p506
sg16
I500
sg17
g13
sg18
g13
sg19
g389
sg21
g22
sbag7
(g8
g9
NtRp507
(dp508
g12
g33
sg14
S'Helvetica'
p509
sg16
I500
sg17
g180
sg18
g13
sg19
g390
sg21
g22
sbag7
(g8
g9
NtRp510
(dp511
g12
g13
sg14
S'Computer Modern'
p512
sg16
I500
sg17
g13
sg18
g13
sg19
g391
sg21
g22
sbag7
(g8
g9
NtRp513
(dp514
g12
g13
sg14
S'Courier'
p515
sg16
I700
sg17
g13
sg18
g13
sg19
g392
sg21
g22
sbag7
(g8
g9
NtRp516
(dp517
g12
g33
sg14
S'ITC Avant Garde Gothic'
p518
sg16
I600
sg17
g13
sg18
g13
sg19
g393
sg21
g22
sbag7
(g8
g9
NtRp519
(dp520
g12
g33
sg14
S'Utopia'
p521
sg16
I700
sg17
g13
sg18
g13
sg19
g394
sg21
g22
sbag7
(g8
g9
NtRp522
(dp523
g12
g13
sg14
S'Courier'
p524
sg16
I700
sg17
g13
sg18
g13
sg19
g395
sg21
g22
sbag7
(g8
g9
NtRp525
(dp526
g12
g13
sg14
S'Computer Modern'
p527
sg16
I500
sg17
g13
sg18
g13
sg19
g396
sg21
g22
sbag7
(g8
g9
NtRp528
(dp529
g12
g33
sg14
S'ITC Bookman'
p530
sg16
I200
sg17
g13
sg18
g13
sg19
g397
sg21
g22
sbag7
(g8
g9
NtRp531
(dp532
g12
g33
sg14
S'Courier'
p533
sg16
I700
sg17
g13
sg18
g13
sg19
g398
sg21
g22
sbag7
(g8
g9
NtRp534
(dp535
g12
g13
sg14
S'ITC Zapf Dingbats'
p536
sg16
I500
sg17
g13
sg18
g13
sg19
g399
sg21
g22
sbag7
(g8
g9
NtRp537
(dp538
g12
g13
sg14
S'Times'
p539
sg16
I500
sg17
g13
sg18
g13
sg19
g400
sg21
g22
sbag7
(g8
g9
NtRp540
(dp541
g12
g13
sg14
S'Utopia'
p542
sg16
I400
sg17
g13
sg18
g13
sg19
g401
sg21
g22
sbag7
(g8
g9
NtRp543
(dp544
g12
g33
sg14
S'Utopia'
p545
sg16
I400
sg17
g13
sg18
g13
sg19
g402
sg21
g22
sbag7
(g8
g9
NtRp546
(dp547
g12
g33
sg14
S'Helvetica'
p548
sg16
I200
sg17
g13
sg18
g13
sg19
g403
sg21
g22
sbag7
(g8
g9
NtRp549
(dp550
g12
g33
sg14
S'Courier'
p551
sg16
I700
sg17
g13
sg18
g13
sg19
g404
sg21
g22
sbag7
(g8
g9
NtRp552
(dp553
g12
g13
sg14
S'Courier'
p554
sg16
I500
sg17
g13
sg18
g13
sg19
g405
sg21
g22
sbag7
(g8
g9
NtRp555
(dp556
g12
g33
sg14
S'Helvetica'
p557
sg16
I500
sg17
g13
sg18
g13
sg19
g406
sg21
g22
sbag7
(g8
g9
NtRp558
(dp559
g12
g13
sg14
S'Helvetica'
p560
sg16
I500
sg17
g180
sg18
g13
sg19
g407
sg21
g22
sbag7
(g8
g9
NtRp561
(dp562
g12
g33
sg14
S'ITC Avant Garde Gothic'
p563
sg16
I400
sg17
g13
sg18
g13
sg19
g408
sg21
g22
sbag7
(g8
g9
NtRp564
(dp565
g12
g13
sg14
S'Times'
p566
sg16
I700
sg17
g13
sg18
g13
sg19
g409
sg21
g22
sbag7
(g8
g9
NtRp567
(dp568
g12
g13
sg14
S'Palatino'
p569
sg16
I500
sg17
g13
sg18
g13
sg19
g410
sg21
g22
sbag7
(g8
g9
NtRp570
(dp571
g12
g13
sg14
S'Times'
p572
sg16
I700
sg17
g13
sg18
g13
sg19
g411
sg21
g22
sbag7
(g8
g9
NtRp573
(dp574
g12
g13
sg14
S'Helvetica'
p575
sg16
I700
sg17
g180
sg18
g13
sg19
g412
sg21
g22
sbag7
(g8
g9
NtRp576
(dp577
g12
g13
sg14
S'Helvetica'
p578
sg16
I500
sg17
g13
sg18
g13
sg19
g413
sg21
g22
sbag7
(g8
g9
NtRp579
(dp580
g12
g13
sg14
S'ITC Bookman'
p581
sg16
I600
sg17
g13
sg18
g13
sg19
g414
sg21
g22
sbag7
(g8
g9
NtRp582
(dp583
g12
g33
sg14
S'ITC Bookman'
p584
sg16
I600
sg17
g13
sg18
g13
sg19
g415
sg21
g22
sbag7
(g8
g9
NtRp585
(dp586
g12
g13
sg14
S'ZapfDingbats'
p587
sg16
I500
sg17
g13
sg18
g13
sg19
g416
sg21
g22
sbag7
(g8
g9
NtRp588
(dp589
g12
g13
sg14
S'Symbol'
p590
sg16
I500
sg17
g13
sg18
g13
sg19
g417
sg21
g22
sbag7
(g8
g9
NtRp591
(dp592
g12
g33
sg14
S'Palatino'
p593
sg16
I700
sg17
g13
sg18
g13
sg19
g418
sg21
g22
sbag7
(g8
g9
NtRp594
(dp595
g12
g13
sg14
S'Utopia'
p596
sg16
I700
sg17
g13
sg18
g13
sg19
g419
sg21
g22
sbag7
(g8
g9
NtRp597
(dp598
g12
g33
sg14
S'New Century Schoolbook'
p599
sg16
I700
sg17
g13
sg18
g13
sg19
g420
sg21
g22
sbag7
(g8
g9
NtRp600
(dp601
g12
g33
sg14
S'Helvetica'
p602
sg16
I700
sg17
g13
sg18
g13
sg19
g421
sg21
g22
sbag7
(g8
g9
NtRp603
(dp604
g12
g13
sg14
S'Times'
p605
sg16
I500
sg17
g13
sg18
g13
sg19
g422
sg21
g22
sbag7
(g8
g9
NtRp606
(dp607
g12
g13
sg14
S'ITC Bookman'
p608
sg16
I200
sg17
g13
sg18
g13
sg19
g423
sg21
g22
sbag7
(g8
g9
NtRp609
(dp610
g12
g13
sg14
S'New Century Schoolbook'
p611
sg16
I500
sg17
g13
sg18
g13
sg19
g424
sg21
g22
sbag7
(g8
g9
NtRp612
(dp613
g12
g13
sg14
S'Helvetica'
p614
sg16
I500
sg17
g13
sg18
g13
sg19
g425
sg21
g22
sbag7
(g8
g9
NtRp615
(dp616
g12
g33
sg14
S'Times'
p617
sg16
I500
sg17
g13
sg18
g13
sg19
g426
sg21
g22
sbag7
(g8
g9
NtRp618
(dp619
g12
g13
sg14
S'Helvetica'
p620
sg16
I200
sg17
g13
sg18
g13
sg19
g427
sg21
g22
sbag7
(g8
g9
NtRp621
(dp622
g12
g33
sg14
S'New Century Schoolbook'
p623
sg16
I500
sg17
g13
sg18
g13
sg19
g428
sg21
g22
sbag7
(g8
g9
NtRp624
(dp625
g12
g33
sg14
S'Helvetica'
p626
sg16
I700
sg17
g180
sg18
g13
sg19
g429
sg21
g22
sbag7
(g8
g9
NtRp627
(dp628
g12
g33
sg14
S'Courier'
p629
sg16
I500
sg17
g13
sg18
g13
sg19
g430
sg21
g22
sbag7
(g8
g9
NtRp630
(dp631
g12
g13
sg14
S'New Century Schoolbook'
p632
sg16
I700
sg17
g13
sg18
g13
sg19
g431
sg21
g22
sbag7
(g8
g9
NtRp633
(dp634
g12
g33
sg14
S'Palatino'
p635
sg16
I500
sg17
g13
sg18
g13
sg19
g432
sg21
g22
sbag7
(g8
g9
NtRp636
(dp637
g12
g33
sg14
S'ITC Zapf Chancery'
p638
sg16
I500
sg17
g13
sg18
g13
sg19
g433
sg21
g22
sbag7
(g8
g9
NtRp639
(dp640
g12
g13
sg14
S'Helvetica'
p641
sg16
I700
sg17
g13
sg18
g13
sg19
g434
sg21
g22
sbag7
(g8
g9
NtRp642
(dp643
g12
g33
sg14
S'Times'
p644
sg16
I500
sg17
g13
sg18
g13
sg19
g435
sg21
g22
sbag7
(g8
g9
NtRp645
(dp646
g12
g13
sg14
S'Palatino'
p647
sg16
I700
sg17
g13
sg18
g13
sg19
g436
sg21
g22
sbag7
(g8
g9
NtRp648
(dp649
g12
g13
sg14
S'ITC Avant Garde Gothic'
p650
sg16
I400
sg17
g13
sg18
g13
sg19
g437
sg21
g22
sbag7
(g8
g9
NtRp651
(dp652
g12
g33
sg14
S'Helvetica'
p653
sg16
I500
sg17
g13
sg18
g13
sg19
g438
sg21
g22
sbag7
(g8
g9
NtRp654
(dp655
g12
g33
sg14
S'Computer Modern'
p656
sg16
I500
sg17
g13
sg18
g13
sg19
g439
sg21
g22
sbag7
(g8
g9
NtRp657
(dp658
g12
g33
sg14
S'Courier'
p659
sg16
I500
sg17
g13
sg18
g13
sg19
g440
sg21
g22
sbag7
(g8
g9
NtRp660
(dp661
g12
g13
sg14
S'Computer Modern'
p662
sg16
I500
sg17
g13
sg18
g13
sg19
g441
sg21
g22
sbag7
(g8
g9
NtRp663
(dp664
g12
g33
sg14
S'Times'
p665
sg16
I700
sg17
g13
sg18
g13
sg19
g442
sg21
g22
sbag7
(g8
g9
NtRp666
(dp667
g12
g13
sg14
S'ITC Avant Garde Gothic'
p668
sg16
I600
sg17
g13
sg18
g13
sg19
g443
sg21
g22
sbag7
(g8
g9
NtRp669
(dp670
g12
g33
sg14
S'Cyrillic'
p671
sg16
I500
sg17
g13
sg18
g13
sg19
g444
sg21
g22
sbag7
(g8
g9
NtRp672
(dp673
g12
g33
sg14
S'Nimbus Roman No9 L'
p674
sg16
I400
sg17
g13
sg18
g13
sg19
g445
sg21
g22
sbag7
(g8
g9
NtRp675
(dp676
g12
g13
sg14
S'URW Antiqua T'
p677
sg16
I400
sg17
g180
sg18
g13
sg19
g446
sg21
g22
sbag7
(g8
g9
NtRp678
(dp679
g12
g33
sg14
S'URW Bookman L'
p680
sg16
I400
sg17
g13
sg18
g13
sg19
g447
sg21
g22
sbag7
(g8
g9
NtRp681
(dp682
g12
g33
sg14
S'URW Palladio L'
p683
sg16
I700
sg17
g13
sg18
g13
sg19
g448
sg21
g22
sbag7
(g8
g9
NtRp684
(dp685
g12
g13
sg14
S'Nimbus Sans L'
p686
sg16
I400
sg17
g13
sg18
g13
sg19
g449
sg21
g22
sbag7
(g8
g9
NtRp687
(dp688
g12
g13
sg14
S'Nimbus Roman No9 L'
p689
sg16
I400
sg17
g13
sg18
g13
sg19
g450
sg21
g22
sbag7
(g8
g9
NtRp690
(dp691
g12
g33
sg14
S'URW Bookman L'
p692
sg16
I700
sg17
g13
sg18
g13
sg19
g451
sg21
g22
sbag7
(g8
g9
NtRp693
(dp694
g12
g13
sg14
S'URW Palladio L'
p695
sg16
I400
sg17
g13
sg18
g13
sg19
g452
sg21
g22
sbag7
(g8
g9
NtRp696
(dp697
g12
g33
sg14
S'Nimbus Mono L'
p698
sg16
I400
sg17
g13
sg18
g13
sg19
g453
sg21
g22
sbag7
(g8
g9
NtRp699
(dp700
g12
g33
sg14
S'Nimbus Roman No9 L'
p701
sg16
I700
sg17
g13
sg18
g13
sg19
g454
sg21
g22
sbag7
(g8
g9
NtRp702
(dp703
g12
g33
sg14
S'URW Gothic L'
p704
sg16
I400
sg17
g13
sg18
g13
sg19
g455
sg21
g22
sbag7
(g8
g9
NtRp705
(dp706
g12
g13
sg14
S'URW Palladio L'
p707
sg16
I700
sg17
g13
sg18
g13
sg19
g456
sg21
g22
sbag7
(g8
g9
NtRp708
(dp709
g12
g33
sg14
S'Nimbus Sans L'
p710
sg16
I400
sg17
g13
sg18
g13
sg19
g457
sg21
g22
sbag7
(g8
g9
NtRp711
(dp712
g12
g13
sg14
S'Nimbus Mono L'
p713
sg16
I700
sg17
g13
sg18
g13
sg19
g458
sg21
g22
sbag7
(g8
g9
NtRp714
(dp715
g12
g33
sg14
S'Nimbus Sans L Condensed'
p716
sg16
I400
sg17
g180
sg18
g13
sg19
g459
sg21
g22
sbag7
(g8
g9
NtRp717
(dp718
g12
g13
sg14
S'Nimbus Sans L Condensed'
p719
sg16
I400
sg17
g180
sg18
g13
sg19
g460
sg21
g22
sbag7
(g8
g9
NtRp720
(dp721
g12
g33
sg14
S'Bitstream Charter'
p722
sg16
I400
sg17
g13
sg18
g13
sg19
g461
sg21
g22
sbag7
(g8
g9
NtRp723
(dp724
g12
g33
sg14
S'Nimbus Sans L Condensed'
p725
sg16
I700
sg17
g180
sg18
g13
sg19
g462
sg21
g22
sbag7
(g8
g9
NtRp726
(dp727
g12
g13
sg14
S'Nimbus Sans L Condensed'
p728
sg16
I700
sg17
g180
sg18
g13
sg19
g463
sg21
g22
sbag7
(g8
g9
NtRp729
(dp730
g12
g13
sg14
S'Nimbus Roman No9 L'
p731
sg16
I700
sg17
g13
sg18
g13
sg19
g464
sg21
g22
sbag7
(g8
g9
NtRp732
(dp733
g12
g33
sg14
S'Bitstream Charter'
p734
sg16
I700
sg17
g13
sg18
g13
sg19
g465
sg21
g22
sbag7
(g8
g9
NtRp735
(dp736
g12
g33
sg14
S'Nimbus Sans L'
p737
sg16
I700
sg17
g13
sg18
g13
sg19
g466
sg21
g22
sbag7
(g8
g9
NtRp738
(dp739
g12
g33
sg14
S'URW Gothic L'
p740
sg16
I600
sg17
g13
sg18
g13
sg19
g467
sg21
g22
sbag7
(g8
g9
NtRp741
(dp742
g12
g13
sg14
S'Cyrillic'
p743
sg16
I500
sg17
g13
sg18
g13
sg19
g468
sg21
g22
sbag7
(g8
g9
NtRp744
(dp745
g12
g13
sg14
S'Standard Symbols L'
p746
sg16
I400
sg17
g13
sg18
g13
sg19
g469
sg21
g22
sbag7
(g8
g9
NtRp747
(dp748
g12
g13
sg14
S'Bitstream Charter'
p749
sg16
I700
sg17
g13
sg18
g13
sg19
g470
sg21
g22
sbag7
(g8
g9
NtRp750
(dp751
g12
g13
sg14
S'URW Gothic L'
p752
sg16
I400
sg17
g13
sg18
g13
sg19
g471
sg21
g22
sbag7
(g8
g9
NtRp753
(dp754
g12
g33
sg14
S'URW Chancery L'
p755
sg16
I500
sg17
g13
sg18
g13
sg19
g472
sg21
g22
sbag7
(g8
g9
NtRp756
(dp757
g12
g33
sg14
S'Century Schoolbook L'
p758
sg16
I700
sg17
g13
sg18
g13
sg19
g473
sg21
g22
sbag7
(g8
g9
NtRp759
(dp760
g12
g13
sg14
S'Nimbus Sans L'
p761
sg16
I700
sg17
g13
sg18
g13
sg19
g474
sg21
g22
sbag7
(g8
g9
NtRp762
(dp763
g12
g13
sg14
S'Bitstream Charter'
p764
sg16
I400
sg17
g13
sg18
g13
sg19
g475
sg21
g22
sbag7
(g8
g9
NtRp765
(dp766
g12
g13
sg14
S'URW Bookman L'
p767
sg16
I400
sg17
g13
sg18
g13
sg19
g476
sg21
g22
sbag7
(g8
g9
NtRp768
(dp769
g12
g13
sg14
S'Dingbats'
p770
sg16
I400
sg17
g13
sg18
g13
sg19
g477
sg21
g22
sbag7
(g8
g9
NtRp771
(dp772
g12
g13
sg14
S'Century Schoolbook L'
p773
sg16
I400
sg17
g13
sg18
g13
sg19
g478
sg21
g22
sbag7
(g8
g9
NtRp774
(dp775
g12
g33
sg14
S'Nimbus Mono L'
p776
sg16
I700
sg17
g13
sg18
g13
sg19
g479
sg21
g22
sbag7
(g8
g9
NtRp777
(dp778
g12
g13
sg14
S'URW Gothic L'
p779
sg16
I600
sg17
g13
sg18
g13
sg19
g480
sg21
g22
sbag7
(g8
g9
NtRp780
(dp781
g12
g33
sg14
S'Century Schoolbook L'
p782
sg16
I400
sg17
g13
sg18
g13
sg19
g481
sg21
g22
sbag7
(g8
g9
NtRp783
(dp784
g12
g13
sg14
S'Nimbus Mono L'
p785
sg16
I400
sg17
g13
sg18
g13
sg19
g482
sg21
g22
sbag7
(g8
g9
NtRp786
(dp787
g12
g13
sg14
S'URW Grotesk T'
p788
sg16
I400
sg17
g13
sg18
g13
sg19
g483
sg21
g22
sbag7
(g8
g9
NtRp789
(dp790
g12
g33
sg14
S'URW Palladio L'
p791
sg16
I400
sg17
g13
sg18
g13
sg19
g484
sg21
g22
sbag7
(g8
g9
NtRp792
(dp793
g12
g13
sg14
S'URW Bookman L'
p794
sg16
I700
sg17
g13
sg18
g13
sg19
g485
sg21
g22
sbag7
(g8
g9
NtRp795
(dp796
g12
g13
sg14
S'Century Schoolbook L'
p797
sg16
I700
sg17
g13
sg18
g13
sg19
g486
sg21
g22
sbasb.